target datalayout = "e-m:e-p270:32:32-p271:32:32-p272:64:64-i64:64-i128:128-f80:128-n8:16:32:64-S128"
target triple = "x86_64-pc-linux-gnu"

%"class.google::protobuf::io::Tokenizer" = type { %"struct.google::protobuf::io::Tokenizer::Token", %"struct.google::protobuf::io::Tokenizer::Token", ptr, ptr, i8, ptr, i32, i32, i8, i32, i32, ptr, i32, i8, i32, i8, i8, i8, i8 }
%"struct.google::protobuf::io::Tokenizer::Token" = type <{ i32, [4 x i8], %"class.std::__cxx11::basic_string", i32, i32, i32, [4 x i8] }>
%"class.std::__cxx11::basic_string" = type { %"struct.std::__cxx11::basic_string<char>::_Alloc_hider", i64, %union.anon }
%"struct.std::__cxx11::basic_string<char>::_Alloc_hider" = type { ptr }
%union.anon = type { i64, [8 x i8] }

; Function Attrs: inlinehint mustprogress nounwind uwtable
define internal noundef zeroext i1 @_ZN6google8protobuf2io12_GLOBAL__N_110Whitespace7InClassEc(i8 noundef signext %0) #7 align 2 {
  %2 = alloca i8, align 1
  store i8 %0, ptr %2, align 1, !tbaa !53
  %3 = load i8, ptr %2, align 1, !tbaa !53
  %4 = sext i8 %3 to i32
  %5 = icmp eq i32 %4, 32
  br i1 %5, label %26, label %6

6:                                                ; preds = %1
  %7 = load i8, ptr %2, align 1, !tbaa !53
  %8 = sext i8 %7 to i32
  %9 = icmp eq i32 %8, 10
  br i1 %9, label %26, label %10

10:                                               ; preds = %6
  %11 = load i8, ptr %2, align 1, !tbaa !53
  %12 = sext i8 %11 to i32
  %13 = icmp eq i32 %12, 9
  br i1 %13, label %26, label %14

14:                                               ; preds = %10
  %15 = load i8, ptr %2, align 1, !tbaa !53
  %16 = sext i8 %15 to i32
  %17 = icmp eq i32 %16, 13
  br i1 %17, label %26, label %18

18:                                               ; preds = %14
  %19 = load i8, ptr %2, align 1, !tbaa !53
  %20 = sext i8 %19 to i32
  %21 = icmp eq i32 %20, 11
  br i1 %21, label %26, label %22

22:                                               ; preds = %18
  %23 = load i8, ptr %2, align 1, !tbaa !53
  %24 = sext i8 %23 to i32
  %25 = icmp eq i32 %24, 12
  br label %26

26:                                               ; preds = %22, %18, %14, %10, %6, %1
  %27 = phi i1 [ true, %18 ], [ true, %14 ], [ true, %10 ], [ true, %6 ], [ true, %1 ], [ %25, %22 ]
  ret i1 %27
}

; Function Attrs: inlinehint mustprogress nounwind uwtable
define internal noundef zeroext i1 @_ZN6google8protobuf2io12_GLOBAL__N_119WhitespaceNoNewline7InClassEc(i8 noundef signext %0) #7 align 2 {
  %2 = alloca i8, align 1
  store i8 %0, ptr %2, align 1, !tbaa !53
  %3 = load i8, ptr %2, align 1, !tbaa !53
  %4 = sext i8 %3 to i32
  %5 = icmp eq i32 %4, 32
  br i1 %5, label %22, label %6

6:                                                ; preds = %1
  %7 = load i8, ptr %2, align 1, !tbaa !53
  %8 = sext i8 %7 to i32
  %9 = icmp eq i32 %8, 9
  br i1 %9, label %22, label %10

10:                                               ; preds = %6
  %11 = load i8, ptr %2, align 1, !tbaa !53
  %12 = sext i8 %11 to i32
  %13 = icmp eq i32 %12, 13
  br i1 %13, label %22, label %14

14:                                               ; preds = %10
  %15 = load i8, ptr %2, align 1, !tbaa !53
  %16 = sext i8 %15 to i32
  %17 = icmp eq i32 %16, 11
  br i1 %17, label %22, label %18

18:                                               ; preds = %14
  %19 = load i8, ptr %2, align 1, !tbaa !53
  %20 = sext i8 %19 to i32
  %21 = icmp eq i32 %20, 12
  br label %22

22:                                               ; preds = %18, %14, %10, %6, %1
  %23 = phi i1 [ true, %14 ], [ true, %10 ], [ true, %6 ], [ true, %1 ], [ %21, %18 ]
  ret i1 %23
}

; Function Attrs: inlinehint mustprogress uwtable
define internal void @_ZN6google8protobuf2io9Tokenizer17ConsumeZeroOrMoreINS1_12_GLOBAL__N_110WhitespaceEEEvv(ptr noundef nonnull align 8 dereferenceable(192) %0) #10 align 2 {
  %2 = alloca ptr, align 8
  store ptr %0, ptr %2, align 8, !tbaa !8
  %3 = load ptr, ptr %2, align 8
  br label %4

4:                                                ; preds = %8, %1
  %5 = getelementptr inbounds nuw %"class.google::protobuf::io::Tokenizer", ptr %3, i32 0, i32 4
  %6 = load i8, ptr %5, align 8, !tbaa !47
  %7 = call noundef zeroext i1 @_ZN6google8protobuf2io12_GLOBAL__N_110Whitespace7InClassEc(i8 noundef signext %6)
  br i1 %7, label %8, label %9

8:                                                ; preds = %4
  call void @_ZN6google8protobuf2io9Tokenizer8NextCharEv(ptr noundef nonnull align 8 dereferenceable(192) %3)
  br label %4, !llvm.loop !73

9:                                                ; preds = %4
  ret void
}

; Function Attrs: inlinehint mustprogress uwtable
define internal noundef zeroext i1 @_ZN6google8protobuf2io9Tokenizer13TryConsumeOneINS1_12_GLOBAL__N_110WhitespaceEEEbv(ptr noundef nonnull align 8 dereferenceable(192) %0) #10 align 2 {
  %2 = alloca i1, align 1
  %3 = alloca ptr, align 8
  store ptr %0, ptr %3, align 8, !tbaa !8
  %4 = load ptr, ptr %3, align 8
  %5 = getelementptr inbounds nuw %"class.google::protobuf::io::Tokenizer", ptr %4, i32 0, i32 4
  %6 = load i8, ptr %5, align 8, !tbaa !47
  %7 = call noundef zeroext i1 @_ZN6google8protobuf2io12_GLOBAL__N_110Whitespace7InClassEc(i8 noundef signext %6)
  br i1 %7, label %8, label %9

8:                                                ; preds = %1
  call void @_ZN6google8protobuf2io9Tokenizer8NextCharEv(ptr noundef nonnull align 8 dereferenceable(192) %4)
  store i1 true, ptr %2, align 1
  br label %10

9:                                                ; preds = %1
  store i1 false, ptr %2, align 1
  br label %10

10:                                               ; preds = %9, %8
  %11 = load i1, ptr %2, align 1
  ret i1 %11
}

; Function Attrs: inlinehint mustprogress uwtable
define internal void @_ZN6google8protobuf2io9Tokenizer17ConsumeZeroOrMoreINS1_12_GLOBAL__N_119WhitespaceNoNewlineEEEvv(ptr noundef nonnull align 8 dereferenceable(192) %0) #10 align 2 {
  %2 = alloca ptr, align 8
  store ptr %0, ptr %2, align 8, !tbaa !8
  %3 = load ptr, ptr %2, align 8
  br label %4

4:                                                ; preds = %8, %1
  %5 = getelementptr inbounds nuw %"class.google::protobuf::io::Tokenizer", ptr %3, i32 0, i32 4
  %6 = load i8, ptr %5, align 8, !tbaa !47
  %7 = call noundef zeroext i1 @_ZN6google8protobuf2io12_GLOBAL__N_119WhitespaceNoNewline7InClassEc(i8 noundef signext %6)
  br i1 %7, label %8, label %9

8:                                                ; preds = %4
  call void @_ZN6google8protobuf2io9Tokenizer8NextCharEv(ptr noundef nonnull align 8 dereferenceable(192) %3)
  br label %4, !llvm.loop !71

9:                                                ; preds = %4
  ret void
}

; Function Attrs: inlinehint mustprogress uwtable
define internal noundef zeroext i1 @_ZN6google8protobuf2io9Tokenizer13TryConsumeOneINS1_12_GLOBAL__N_119WhitespaceNoNewlineEEEbv(ptr noundef nonnull align 8 dereferenceable(192) %0) #10 align 2 {
  %2 = alloca i1, align 1
  %3 = alloca ptr, align 8
  store ptr %0, ptr %3, align 8, !tbaa !8
  %4 = load ptr, ptr %3, align 8
  %5 = getelementptr inbounds nuw %"class.google::protobuf::io::Tokenizer", ptr %4, i32 0, i32 4
  %6 = load i8, ptr %5, align 8, !tbaa !47
  %7 = call noundef zeroext i1 @_ZN6google8protobuf2io12_GLOBAL__N_119WhitespaceNoNewline7InClassEc(i8 noundef signext %6)
  br i1 %7, label %8, label %9

8:                                                ; preds = %1
  call void @_ZN6google8protobuf2io9Tokenizer8NextCharEv(ptr noundef nonnull align 8 dereferenceable(192) %4)
  store i1 true, ptr %2, align 1
  br label %10

9:                                                ; preds = %1
  store i1 false, ptr %2, align 1
  br label %10

10:                                               ; preds = %9, %8
  %11 = load i1, ptr %2, align 1
  ret i1 %11
}

; Function Attrs: mustprogress uwtable
define hidden noundef zeroext i1 @_ZN6google8protobuf2io9Tokenizer20TryConsumeWhitespaceEv(ptr noundef nonnull align 8 dereferenceable(192) %0) #6 align 2 {
  %2 = alloca i1, align 1
  %3 = alloca ptr, align 8
  store ptr %0, ptr %3, align 8, !tbaa !8
  %4 = load ptr, ptr %3, align 8
  %5 = getelementptr inbounds nuw %"class.google::protobuf::io::Tokenizer", ptr %4, i32 0, i32 18
  %6 = load i8, ptr %5, align 1, !tbaa !38, !range !45, !noundef !46
  %7 = trunc i8 %6 to i1
  br i1 %7, label %8, label %14

8:                                                ; preds = %1
  %9 = call noundef zeroext i1 @_ZN6google8protobuf2io9Tokenizer13TryConsumeOneINS1_12_GLOBAL__N_119WhitespaceNoNewlineEEEbv(ptr noundef nonnull align 8 dereferenceable(192) %4)
  br i1 %9, label %10, label %13

10:                                               ; preds = %8
  call void @_ZN6google8protobuf2io9Tokenizer17ConsumeZeroOrMoreINS1_12_GLOBAL__N_119WhitespaceNoNewlineEEEvv(ptr noundef nonnull align 8 dereferenceable(192) %4)
  %11 = getelementptr inbounds nuw %"class.google::protobuf::io::Tokenizer", ptr %4, i32 0, i32 0
  %12 = getelementptr inbounds nuw %"struct.google::protobuf::io::Tokenizer::Token", ptr %11, i32 0, i32 0
  store i32 7, ptr %12, align 8, !tbaa !42
  store i1 true, ptr %2, align 1
  br label %23

13:                                               ; preds = %8
  store i1 false, ptr %2, align 1
  br label %23

14:                                               ; preds = %1
  %15 = call noundef zeroext i1 @_ZN6google8protobuf2io9Tokenizer13TryConsumeOneINS1_12_GLOBAL__N_110WhitespaceEEEbv(ptr noundef nonnull align 8 dereferenceable(192) %4)
  br i1 %15, label %16, label %22

16:                                               ; preds = %14
  call void @_ZN6google8protobuf2io9Tokenizer17ConsumeZeroOrMoreINS1_12_GLOBAL__N_110WhitespaceEEEvv(ptr noundef nonnull align 8 dereferenceable(192) %4)
  %17 = getelementptr inbounds nuw %"class.google::protobuf::io::Tokenizer", ptr %4, i32 0, i32 0
  %18 = getelementptr inbounds nuw %"struct.google::protobuf::io::Tokenizer::Token", ptr %17, i32 0, i32 0
  store i32 7, ptr %18, align 8, !tbaa !42
  %19 = getelementptr inbounds nuw %"class.google::protobuf::io::Tokenizer", ptr %4, i32 0, i32 17
  %20 = load i8, ptr %19, align 2, !tbaa !37, !range !45, !noundef !46
  %21 = trunc i8 %20 to i1
  store i1 %21, ptr %2, align 1
  br label %23

22:                                               ; preds = %14
  store i1 false, ptr %2, align 1
  br label %23

23:                                               ; preds = %22, %16, %13, %10
  %24 = load i1, ptr %2, align 1
  ret i1 %24
}