; Function Attrs: mustprogress uwtable
define hidden noundef zeroext i1 @_ZN6google8protobuf2io9Tokenizer20TryConsumeWhitespaceEv(ptr noundef nonnull align 8 dereferenceable(192) %0) local_unnamed_addr #6 align 2 {
  %2 = getelementptr inbounds nuw i8, ptr %0, i64 191
  %3 = load i8, ptr %2, align 1, !tbaa !33, !range !49, !noundef !50
  %4 = trunc nuw i8 %3 to i1
  %5 = getelementptr inbounds nuw i8, ptr %0, i64 128
  %6 = load i8, ptr %5, align 8, !tbaa !47
  br i1 %4, label %7, label %10

7:                                                ; preds = %1
  switch i8 %6, label %_ZN6google8protobuf2io9Tokenizer13TryConsumeOneINS1_12_GLOBAL__N_119WhitespaceNoNewlineEEEbv.exit [
    i8 32, label %.preheader
    i8 13, label %.preheader
    i8 11, label %.preheader
    i8 9, label %.preheader
    i8 12, label %.preheader
  ]

.preheader:                                       ; preds = %7, %7, %7, %7, %7
  br label %8

8:                                                ; preds = %.backedge, %.preheader
  tail call void @_ZN6google8protobuf2io9Tokenizer8NextCharEv(ptr noundef nonnull align 8 dereferenceable(192) %0)
  %9 = load i8, ptr %5, align 8, !tbaa !47
  switch i8 %9, label %_ZN6google8protobuf2io9Tokenizer17ConsumeZeroOrMoreINS1_12_GLOBAL__N_119WhitespaceNoNewlineEEEvv.exit [
    i8 32, label %.backedge
    i8 13, label %.backedge
    i8 11, label %.backedge
    i8 9, label %.backedge
    i8 12, label %.backedge
  ]

.backedge:                                        ; preds = %8, %8, %8, %8, %8
  br label %8, !llvm.loop !58

_ZN6google8protobuf2io9Tokenizer17ConsumeZeroOrMoreINS1_12_GLOBAL__N_119WhitespaceNoNewlineEEEvv.exit: ; preds = %8
  store i32 7, ptr %0, align 8, !tbaa !37
  br label %_ZN6google8protobuf2io9Tokenizer13TryConsumeOneINS1_12_GLOBAL__N_119WhitespaceNoNewlineEEEbv.exit

10:                                               ; preds = %1
  switch i8 %6, label %_ZN6google8protobuf2io9Tokenizer13TryConsumeOneINS1_12_GLOBAL__N_119WhitespaceNoNewlineEEEbv.exit [
    i8 32, label %.preheader2
    i8 13, label %.preheader2
    i8 11, label %.preheader2
    i8 10, label %.preheader2
    i8 9, label %.preheader2
    i8 12, label %.preheader2
  ]

.preheader2:                                      ; preds = %10, %10, %10, %10, %10, %10
  br label %11

11:                                               ; preds = %.backedge3, %.preheader2
  tail call void @_ZN6google8protobuf2io9Tokenizer8NextCharEv(ptr noundef nonnull align 8 dereferenceable(192) %0)
  %12 = load i8, ptr %5, align 8, !tbaa !47
  switch i8 %12, label %_ZN6google8protobuf2io9Tokenizer17ConsumeZeroOrMoreINS1_12_GLOBAL__N_110WhitespaceEEEvv.exit [
    i8 32, label %.backedge3
    i8 13, label %.backedge3
    i8 11, label %.backedge3
    i8 10, label %.backedge3
    i8 9, label %.backedge3
    i8 12, label %.backedge3
  ]

.backedge3:                                       ; preds = %11, %11, %11, %11, %11, %11
  br label %11, !llvm.loop !60

_ZN6google8protobuf2io9Tokenizer17ConsumeZeroOrMoreINS1_12_GLOBAL__N_110WhitespaceEEEvv.exit: ; preds = %11
  store i32 7, ptr %0, align 8, !tbaa !37
  %13 = getelementptr inbounds nuw i8, ptr %0, i64 190
  %14 = load i8, ptr %13, align 2, !tbaa !32, !range !49, !noundef !50
  %15 = trunc nuw i8 %14 to i1
  br label %_ZN6google8protobuf2io9Tokenizer13TryConsumeOneINS1_12_GLOBAL__N_119WhitespaceNoNewlineEEEbv.exit

_ZN6google8protobuf2io9Tokenizer13TryConsumeOneINS1_12_GLOBAL__N_119WhitespaceNoNewlineEEEbv.exit: ; preds = %10, %7, %_ZN6google8protobuf2io9Tokenizer17ConsumeZeroOrMoreINS1_12_GLOBAL__N_110WhitespaceEEEvv.exit, %_ZN6google8protobuf2io9Tokenizer17ConsumeZeroOrMoreINS1_12_GLOBAL__N_119WhitespaceNoNewlineEEEvv.exit
  %.0 = phi i1 [ true, %_ZN6google8protobuf2io9Tokenizer17ConsumeZeroOrMoreINS1_12_GLOBAL__N_119WhitespaceNoNewlineEEEvv.exit ], [ %15, %_ZN6google8protobuf2io9Tokenizer17ConsumeZeroOrMoreINS1_12_GLOBAL__N_110WhitespaceEEEvv.exit ], [ false, %7 ], [ false, %10 ]
  ret i1 %.0
}